; ModuleID = '51/437.c'
source_filename = "51/437.c"
target datalayout = "e-m:e-p270:32:32-p271:32:32-p272:64:64-i64:64-f80:128-n8:16:32:64-S128"
target triple = "x86_64-pc-linux-gnu"

@.str = private unnamed_addr constant [4 x i8] c"%d\0A\00", align 1
@.str.1 = private unnamed_addr constant [3 x i8] c"NO\00", align 1

; Function Attrs: noinline nounwind uwtable
define dso_local i32 @main() #0 {
  %1 = alloca i32, align 4
  %2 = alloca i32, align 4
  %3 = alloca [500 x i32], align 16
  %4 = alloca [600 x i8], align 16
  %5 = alloca [500 x [10 x i8]], align 16
  %6 = alloca [10 x i8], align 1
  %7 = alloca i32, align 4
  %8 = alloca i32, align 4
  %9 = alloca i32, align 4
  %10 = alloca i32, align 4
  %11 = alloca i32, align 4
  %12 = alloca i32, align 4
  %13 = alloca i32, align 4
  %14 = alloca i32, align 4
  store i32 0, i32* %1, align 4
  %15 = bitcast [500 x i32]* %3 to i8*
  call void @llvm.memset.p0i8.i64(i8* align 16 %15, i8 0, i64 2000, i1 false)
  %16 = bitcast [500 x [10 x i8]]* %5 to i8*
  call void @llvm.memset.p0i8.i64(i8* align 16 %16, i8 0, i64 5000, i1 false)
  %17 = call i32 (i8*, ...) @__isoc99_scanf(i8* getelementptr inbounds ([4 x i8], [4 x i8]* @.str, i64 0, i64 0), i32* %2)
  %18 = getelementptr inbounds [600 x i8], [600 x i8]* %4, i64 0, i64 0
  %19 = call i32 (i8*, ...) bitcast (i32 (...)* @gets to i32 (i8*, ...)*)(i8* %18)
  store i32 0, i32* %10, align 4
  %20 = getelementptr inbounds [600 x i8], [600 x i8]* %4, i64 0, i64 0
  %21 = call i64 @strlen(i8* %20) #5
  %22 = trunc i64 %21 to i32
  store i32 %22, i32* %9, align 4
  store i32 0, i32* %7, align 4
  br label %23

23:                                               ; preds = %96, %0
  %24 = load i32, i32* %7, align 4
  %25 = load i32, i32* %9, align 4
  %26 = load i32, i32* %2, align 4
  %27 = sub nsw i32 %25, %26
  %28 = icmp sle i32 %24, %27
  br i1 %28, label %29, label %99

29:                                               ; preds = %23
  %30 = load i32, i32* %7, align 4
  store i32 %30, i32* %8, align 4
  br label %31

31:                                               ; preds = %48, %29
  %32 = load i32, i32* %8, align 4
  %33 = load i32, i32* %7, align 4
  %34 = load i32, i32* %2, align 4
  %35 = add nsw i32 %33, %34
  %36 = sub nsw i32 %35, 1
  %37 = icmp sle i32 %32, %36
  br i1 %37, label %38, label %51

38:                                               ; preds = %31
  %39 = load i32, i32* %8, align 4
  %40 = sext i32 %39 to i64
  %41 = getelementptr inbounds [600 x i8], [600 x i8]* %4, i64 0, i64 %40
  %42 = load i8, i8* %41, align 1
  %43 = load i32, i32* %8, align 4
  %44 = load i32, i32* %7, align 4
  %45 = sub nsw i32 %43, %44
  %46 = sext i32 %45 to i64
  %47 = getelementptr inbounds [10 x i8], [10 x i8]* %6, i64 0, i64 %46
  store i8 %42, i8* %47, align 1
  br label %48

48:                                               ; preds = %38
  %49 = load i32, i32* %8, align 4
  %50 = add nsw i32 %49, 1
  store i32 %50, i32* %8, align 4
  br label %31

51:                                               ; preds = %31
  %52 = load i32, i32* %2, align 4
  %53 = sext i32 %52 to i64
  %54 = getelementptr inbounds [10 x i8], [10 x i8]* %6, i64 0, i64 %53
  store i8 0, i8* %54, align 1
  store i32 1, i32* %11, align 4
  br label %55

55:                                               ; preds = %72, %51
  %56 = load i32, i32* %11, align 4
  %57 = load i32, i32* %10, align 4
  %58 = icmp sle i32 %56, %57
  br i1 %58, label %59, label %75

59:                                               ; preds = %55
  %60 = getelementptr inbounds [10 x i8], [10 x i8]* %6, i64 0, i64 0
  %61 = load i32, i32* %11, align 4
  %62 = sub nsw i32 %61, 1
  %63 = sext i32 %62 to i64
  %64 = getelementptr inbounds [500 x [10 x i8]], [500 x [10 x i8]]* %5, i64 0, i64 %63
  %65 = getelementptr inbounds [10 x i8], [10 x i8]* %64, i64 0, i64 0
  %66 = call i32 @strcmp(i8* %60, i8* %65) #5
  %67 = icmp eq i32 %66, 0
  br i1 %67, label %68, label %71

68:                                               ; preds = %59
  %69 = load i32, i32* %11, align 4
  %70 = sub nsw i32 %69, 1
  store i32 %70, i32* %12, align 4
  br label %75

71:                                               ; preds = %59
  br label %72

72:                                               ; preds = %71
  %73 = load i32, i32* %11, align 4
  %74 = add nsw i32 %73, 1
  store i32 %74, i32* %11, align 4
  br label %55

75:                                               ; preds = %68, %55
  %76 = load i32, i32* %11, align 4
  %77 = load i32, i32* %10, align 4
  %78 = icmp sgt i32 %76, %77
  br i1 %78, label %79, label %89

79:                                               ; preds = %75
  %80 = load i32, i32* %11, align 4
  %81 = sub nsw i32 %80, 1
  %82 = sext i32 %81 to i64
  %83 = getelementptr inbounds [500 x [10 x i8]], [500 x [10 x i8]]* %5, i64 0, i64 %82
  %84 = getelementptr inbounds [10 x i8], [10 x i8]* %83, i64 0, i64 0
  %85 = getelementptr inbounds [10 x i8], [10 x i8]* %6, i64 0, i64 0
  %86 = call i8* @strcpy(i8* %84, i8* %85) #6
  %87 = load i32, i32* %10, align 4
  %88 = add nsw i32 %87, 1
  store i32 %88, i32* %10, align 4
  br label %95

89:                                               ; preds = %75
  %90 = load i32, i32* %12, align 4
  %91 = sext i32 %90 to i64
  %92 = getelementptr inbounds [500 x i32], [500 x i32]* %3, i64 0, i64 %91
  %93 = load i32, i32* %92, align 4
  %94 = add nsw i32 %93, 1
  store i32 %94, i32* %92, align 4
  br label %95

95:                                               ; preds = %89, %79
  br label %96

96:                                               ; preds = %95
  %97 = load i32, i32* %7, align 4
  %98 = add nsw i32 %97, 1
  store i32 %98, i32* %7, align 4
  br label %23

99:                                               ; preds = %23
  %100 = getelementptr inbounds [500 x i32], [500 x i32]* %3, i64 0, i64 0
  %101 = load i32, i32* %100, align 16
  store i32 %101, i32* %14, align 4
  store i32 0, i32* %7, align 4
  br label %102

102:                                              ; preds = %119, %99
  %103 = load i32, i32* %7, align 4
  %104 = load i32, i32* %10, align 4
  %105 = icmp slt i32 %103, %104
  br i1 %105, label %106, label %122

106:                                              ; preds = %102
  %107 = load i32, i32* %7, align 4
  %108 = sext i32 %107 to i64
  %109 = getelementptr inbounds [500 x i32], [500 x i32]* %3, i64 0, i64 %108
  %110 = load i32, i32* %109, align 4
  %111 = load i32, i32* %14, align 4
  %112 = icmp sgt i32 %110, %111
  br i1 %112, label %113, label %118

113:                                              ; preds = %106
  %114 = load i32, i32* %7, align 4
  %115 = sext i32 %114 to i64
  %116 = getelementptr inbounds [500 x i32], [500 x i32]* %3, i64 0, i64 %115
  %117 = load i32, i32* %116, align 4
  store i32 %117, i32* %14, align 4
  br label %118

118:                                              ; preds = %113, %106
  br label %119

119:                                              ; preds = %118
  %120 = load i32, i32* %7, align 4
  %121 = add nsw i32 %120, 1
  store i32 %121, i32* %7, align 4
  br label %102

122:                                              ; preds = %102
  %123 = load i32, i32* %14, align 4
  %124 = add nsw i32 %123, 1
  store i32 %124, i32* %14, align 4
  %125 = load i32, i32* %14, align 4
  %126 = icmp eq i32 %125, 1
  br i1 %126, label %127, label %129

127:                                              ; preds = %122
  %128 = call i32 (i8*, ...) @printf(i8* getelementptr inbounds ([3 x i8], [3 x i8]* @.str.1, i64 0, i64 0))
  br label %155

129:                                              ; preds = %122
  %130 = load i32, i32* %14, align 4
  %131 = call i32 (i8*, ...) @printf(i8* getelementptr inbounds ([4 x i8], [4 x i8]* @.str, i64 0, i64 0), i32 %130)
  store i32 0, i32* %7, align 4
  br label %132

132:                                              ; preds = %151, %129
  %133 = load i32, i32* %7, align 4
  %134 = load i32, i32* %10, align 4
  %135 = icmp slt i32 %133, %134
  br i1 %135, label %136, label %154

136:                                              ; preds = %132
  %137 = load i32, i32* %7, align 4
  %138 = sext i32 %137 to i64
  %139 = getelementptr inbounds [500 x i32], [500 x i32]* %3, i64 0, i64 %138
  %140 = load i32, i32* %139, align 4
  %141 = load i32, i32* %14, align 4
  %142 = sub nsw i32 %141, 1
  %143 = icmp eq i32 %140, %142
  br i1 %143, label %144, label %150

144:                                              ; preds = %136
  %145 = load i32, i32* %7, align 4
  %146 = sext i32 %145 to i64
  %147 = getelementptr inbounds [500 x [10 x i8]], [500 x [10 x i8]]* %5, i64 0, i64 %146
  %148 = getelementptr inbounds [10 x i8], [10 x i8]* %147, i64 0, i64 0
  %149 = call i32 @puts(i8* %148)
  br label %150

150:                                              ; preds = %144, %136
  br label %151

151:                                              ; preds = %150
  %152 = load i32, i32* %7, align 4
  %153 = add nsw i32 %152, 1
  store i32 %153, i32* %7, align 4
  br label %132

154:                                              ; preds = %132
  br label %155

155:                                              ; preds = %154, %127
  ret i32 0
}

; Function Attrs: argmemonly nounwind willreturn
declare void @llvm.memset.p0i8.i64(i8* nocapture writeonly, i8, i64, i1 immarg) #1

declare dso_local i32 @__isoc99_scanf(i8*, ...) #2

declare dso_local i32 @gets(...) #2

; Function Attrs: nounwind readonly
declare dso_local i64 @strlen(i8*) #3

; Function Attrs: nounwind readonly
declare dso_local i32 @strcmp(i8*, i8*) #3

; Function Attrs: nounwind
declare dso_local i8* @strcpy(i8*, i8*) #4

declare dso_local i32 @printf(i8*, ...) #2

declare dso_local i32 @puts(i8*) #2


!llvm.module.flags = !{!0}
!llvm.ident = !{!1}

!0 = !{i32 1, !"wchar_size", i32 4}
!1 = !{!"clang version 10.0.0-4ubuntu1 "}
